target datalayout = "e-m:e-p270:32:32-p271:32:32-p272:64:64-i64:64-i128:128-f80:128-n8:16:32:64-S128"
target triple = "x86_64-pc-linux-gnu"

%struct.UFILE = type { ptr, ptr, ptr, %struct.u_localized_string, [1024 x i16], i8, i32 }
%struct.u_localized_string = type { ptr, ptr, ptr, %struct.ULocaleBundle }
%struct.ULocaleBundle = type { ptr, [5 x ptr], i8 }

; Function Attrs: mustprogress uwtable
define signext i8 @ufile_getch_77(ptr noundef %0, ptr noundef %1) #0 {
  %3 = alloca ptr, align 8
  %4 = alloca ptr, align 8
  %5 = alloca i8, align 1
  store ptr %0, ptr %3, align 8, !tbaa !3
  store ptr %1, ptr %4, align 8, !tbaa !30
  call void @llvm.lifetime.start.p0(i64 1, ptr %5) #10
  store i8 0, ptr %5, align 1, !tbaa !32
  %6 = load ptr, ptr %4, align 8, !tbaa !30
  store i16 -1, ptr %6, align 2, !tbaa !40
  %7 = load ptr, ptr %3, align 8, !tbaa !3
  %8 = getelementptr inbounds nuw %struct.UFILE, ptr %7, i32 0, i32 3
  %9 = getelementptr inbounds nuw %struct.u_localized_string, ptr %8, i32 0, i32 0
  %10 = load ptr, ptr %9, align 8, !tbaa !36
  %11 = load ptr, ptr %3, align 8, !tbaa !3
  %12 = getelementptr inbounds nuw %struct.UFILE, ptr %11, i32 0, i32 3
  %13 = getelementptr inbounds nuw %struct.u_localized_string, ptr %12, i32 0, i32 1
  %14 = load ptr, ptr %13, align 8, !tbaa !35
  %15 = icmp ult ptr %10, %14
  br i1 %15, label %16, label %24

16:                                               ; preds = %2
  %17 = load ptr, ptr %3, align 8, !tbaa !3
  %18 = getelementptr inbounds nuw %struct.UFILE, ptr %17, i32 0, i32 3
  %19 = getelementptr inbounds nuw %struct.u_localized_string, ptr %18, i32 0, i32 0
  %20 = load ptr, ptr %19, align 8, !tbaa !36
  %21 = getelementptr inbounds nuw i16, ptr %20, i32 1
  store ptr %21, ptr %19, align 8, !tbaa !36
  %22 = load i16, ptr %20, align 2, !tbaa !40
  %23 = load ptr, ptr %4, align 8, !tbaa !30
  store i16 %22, ptr %23, align 2, !tbaa !40
  store i8 1, ptr %5, align 1, !tbaa !32
  br label %55

24:                                               ; preds = %2
  %25 = load ptr, ptr %3, align 8, !tbaa !3
  %26 = getelementptr inbounds nuw %struct.UFILE, ptr %25, i32 0, i32 3
  %27 = getelementptr inbounds nuw %struct.u_localized_string, ptr %26, i32 0, i32 0
  %28 = load ptr, ptr %27, align 8, !tbaa !36
  %29 = load ptr, ptr %3, align 8, !tbaa !3
  %30 = getelementptr inbounds nuw %struct.UFILE, ptr %29, i32 0, i32 3
  %31 = getelementptr inbounds nuw %struct.u_localized_string, ptr %30, i32 0, i32 1
  %32 = load ptr, ptr %31, align 8, !tbaa !35
  %33 = icmp uge ptr %28, %32
  br i1 %33, label %34, label %36

34:                                               ; preds = %24
  %35 = load ptr, ptr %3, align 8, !tbaa !3
  call void @_Z26ufile_fill_uchar_buffer_77P5UFILE(ptr noundef %35)
  br label %36

36:                                               ; preds = %34, %24
  %37 = load ptr, ptr %3, align 8, !tbaa !3
  %38 = getelementptr inbounds nuw %struct.UFILE, ptr %37, i32 0, i32 3
  %39 = getelementptr inbounds nuw %struct.u_localized_string, ptr %38, i32 0, i32 0
  %40 = load ptr, ptr %39, align 8, !tbaa !36
  %41 = load ptr, ptr %3, align 8, !tbaa !3
  %42 = getelementptr inbounds nuw %struct.UFILE, ptr %41, i32 0, i32 3
  %43 = getelementptr inbounds nuw %struct.u_localized_string, ptr %42, i32 0, i32 1
  %44 = load ptr, ptr %43, align 8, !tbaa !35
  %45 = icmp ult ptr %40, %44
  br i1 %45, label %46, label %54

46:                                               ; preds = %36
  %47 = load ptr, ptr %3, align 8, !tbaa !3
  %48 = getelementptr inbounds nuw %struct.UFILE, ptr %47, i32 0, i32 3
  %49 = getelementptr inbounds nuw %struct.u_localized_string, ptr %48, i32 0, i32 0
  %50 = load ptr, ptr %49, align 8, !tbaa !36
  %51 = getelementptr inbounds nuw i16, ptr %50, i32 1
  store ptr %51, ptr %49, align 8, !tbaa !36
  %52 = load i16, ptr %50, align 2, !tbaa !40
  %53 = load ptr, ptr %4, align 8, !tbaa !30
  store i16 %52, ptr %53, align 2, !tbaa !40
  store i8 1, ptr %5, align 1, !tbaa !32
  br label %54

54:                                               ; preds = %46, %36
  br label %55

55:                                               ; preds = %54, %16
  %56 = load i8, ptr %5, align 1, !tbaa !32
  call void @llvm.lifetime.end.p0(i64 1, ptr %5) #10
  ret i8 %56
}

; Function Attrs: mustprogress uwtable
define zeroext i16 @u_fgetc_77(ptr noundef %0) #0 {
  %2 = alloca ptr, align 8
  %3 = alloca i16, align 2
  store ptr %0, ptr %2, align 8, !tbaa !3
  call void @llvm.lifetime.start.p0(i64 2, ptr %3) #10
  %4 = load ptr, ptr %2, align 8, !tbaa !3
  %5 = call signext i8 @ufile_getch_77(ptr noundef %4, ptr noundef %3)
  %6 = load i16, ptr %3, align 2, !tbaa !40
  call void @llvm.lifetime.end.p0(i64 2, ptr %3) #10
  ret i16 %6
}