; Function Attrs: mustprogress uwtable
define zeroext i16 @u_fgetc_77(ptr noundef %0) local_unnamed_addr #0 {
  %2 = getelementptr inbounds nuw i8, ptr %0, i64 24
  %3 = load ptr, ptr %2, align 8, !tbaa !34
  %4 = getelementptr inbounds nuw i8, ptr %0, i64 32
  %5 = load ptr, ptr %4, align 8, !tbaa !33
  %6 = icmp ult ptr %3, %5
  br i1 %6, label %.sink.split.i, label %7

7:                                                ; preds = %1
  tail call void @_Z26ufile_fill_uchar_buffer_77P5UFILE(ptr noundef nonnull %0)
  %8 = load ptr, ptr %2, align 8, !tbaa !34
  %9 = load ptr, ptr %4, align 8, !tbaa !33
  %10 = icmp ult ptr %8, %9
  br i1 %10, label %.sink.split.i, label %ufile_getch_77.exit

.sink.split.i:                                    ; preds = %7, %1
  %.sink15.i = phi ptr [ %3, %1 ], [ %8, %7 ]
  %11 = getelementptr inbounds nuw i8, ptr %.sink15.i, i64 2
  store ptr %11, ptr %2, align 8, !tbaa !34
  %12 = load i16, ptr %.sink15.i, align 2, !tbaa !38
  br label %ufile_getch_77.exit

ufile_getch_77.exit:                              ; preds = %7, %.sink.split.i
  %.0 = phi i16 [ %12, %.sink.split.i ], [ -1, %7 ]
  ret i16 %.0
}